; Function Attrs: mustprogress nounwind uwtable
define noundef ptr @_ZNK7glslang16HlslParseContext24indexStructBufferContentERKNS_10TSourceLocEPNS_12TIntermTypedE(ptr nocapture noundef nonnull readonly align 8 dereferenceable(2489) %0, ptr noundef nonnull align 8 dereferenceable(24) %1, ptr noundef %2) local_unnamed_addr #0 align 2 {
  %4 = icmp eq ptr %2, null
  br i1 %4, label %_ZNK7glslang16HlslParseContext18isStructBufferTypeERKNS_5TTypeE.exit.thread, label %5

5:                                                ; preds = %3
  %6 = load ptr, ptr %2, align 8
  %7 = getelementptr inbounds i8, ptr %6, i64 240
  %8 = load ptr, ptr %7, align 8
  %9 = tail call noundef nonnull align 8 dereferenceable(152) ptr %8(ptr noundef nonnull align 8 dereferenceable(184) %2) #24
  %10 = load ptr, ptr %9, align 8
  %11 = getelementptr inbounds i8, ptr %10, i64 56
  %12 = load ptr, ptr %11, align 8
  %13 = tail call noundef i32 %12(ptr noundef nonnull align 8 dereferenceable(152) %9) #24
  %.not.i.i = icmp eq i32 %13, 16
  br i1 %.not.i.i, label %14, label %_ZNK7glslang16HlslParseContext18isStructBufferTypeERKNS_5TTypeE.exit.thread

14:                                               ; preds = %5
  %15 = load ptr, ptr %9, align 8
  %16 = getelementptr inbounds i8, ptr %15, i64 88
  %17 = load ptr, ptr %16, align 8
  %18 = tail call noundef nonnull align 8 dereferenceable(80) ptr %17(ptr noundef nonnull align 8 dereferenceable(152) %9) #24
  %19 = getelementptr inbounds i8, ptr %18, i64 8
  %20 = load i64, ptr %19, align 8
  %21 = and i64 %20, 127
  %.not7.i.i = icmp eq i64 %21, 6
  br i1 %.not7.i.i, label %_ZNK7glslang16HlslParseContext18isStructBufferTypeERKNS_5TTypeE.exit, label %_ZNK7glslang16HlslParseContext18isStructBufferTypeERKNS_5TTypeE.exit.thread

_ZNK7glslang16HlslParseContext18isStructBufferTypeERKNS_5TTypeE.exit: ; preds = %14
  %22 = getelementptr inbounds i8, ptr %9, i64 104
  %23 = load ptr, ptr %22, align 8
  %24 = getelementptr inbounds i8, ptr %23, i64 8
  %25 = getelementptr inbounds i8, ptr %23, i64 16
  %26 = load ptr, ptr %25, align 8
  %27 = load ptr, ptr %24, align 8
  %28 = ptrtoint ptr %26 to i64
  %29 = ptrtoint ptr %27 to i64
  %30 = sub i64 %28, %29
  %31 = shl i64 %30, 27
  %sext.i.i = add i64 %31, -4294967296
  %32 = ashr exact i64 %sext.i.i, 32
  %33 = getelementptr inbounds %"struct.glslang::TTypeLoc", ptr %27, i64 %32
  %34 = load ptr, ptr %33, align 8
  %35 = load ptr, ptr %34, align 8
  %36 = getelementptr inbounds i8, ptr %35, i64 248
  %37 = load ptr, ptr %36, align 8
  %38 = tail call noundef zeroext i1 %37(ptr noundef nonnull align 8 dereferenceable(152) %34) #24
  br i1 %38, label %39, label %_ZNK7glslang16HlslParseContext18isStructBufferTypeERKNS_5TTypeE.exit.thread

39:                                               ; preds = %_ZNK7glslang16HlslParseContext18isStructBufferTypeERKNS_5TTypeE.exit
  %40 = load ptr, ptr %2, align 8
  %41 = getelementptr inbounds i8, ptr %40, i64 240
  %42 = load ptr, ptr %41, align 8
  %43 = tail call noundef nonnull align 8 dereferenceable(152) ptr %42(ptr noundef nonnull align 8 dereferenceable(184) %2) #24
  %44 = getelementptr inbounds i8, ptr %43, i64 104
  %45 = load ptr, ptr %44, align 8
  %46 = getelementptr inbounds i8, ptr %0, i64 56
  %47 = load ptr, ptr %46, align 8
  %48 = getelementptr inbounds i8, ptr %45, i64 8
  %49 = getelementptr inbounds i8, ptr %45, i64 16
  %50 = load ptr, ptr %49, align 8
  %51 = load ptr, ptr %48, align 8
  %52 = ptrtoint ptr %50 to i64
  %53 = ptrtoint ptr %51 to i64
  %54 = sub i64 %52, %53
  %55 = lshr exact i64 %54, 5
  %56 = trunc i64 %55 to i32
  %57 = add i32 %56, -1
  %58 = tail call noundef ptr @_ZNK7glslang13TIntermediate16addConstantUnionEjRKNS_10TSourceLocEb(ptr noundef nonnull align 8 dereferenceable(2024) %47, i32 noundef %57, ptr noundef nonnull align 8 dereferenceable(24) %1, i1 noundef zeroext false) #24
  %59 = load ptr, ptr %46, align 8
  %60 = tail call noundef ptr @_ZN7glslang13TIntermediate8addIndexENS_9TOperatorEPNS_12TIntermTypedES3_RKNS_10TSourceLocE(ptr noundef nonnull align 8 dereferenceable(2024) %59, i32 noundef 184, ptr noundef nonnull %2, ptr noundef %58, ptr noundef nonnull align 8 dereferenceable(24) %1) #24
  %61 = load ptr, ptr %49, align 8
  %62 = load ptr, ptr %48, align 8
  %63 = ptrtoint ptr %61 to i64
  %64 = ptrtoint ptr %62 to i64
  %65 = sub i64 %63, %64
  %66 = getelementptr i8, ptr %62, i64 %65
  %67 = getelementptr i8, ptr %66, i64 -32
  %68 = load ptr, ptr %67, align 8
  %69 = load ptr, ptr %60, align 8
  %70 = getelementptr inbounds i8, ptr %69, i64 232
  %71 = load ptr, ptr %70, align 8
  tail call void %71(ptr noundef nonnull align 8 dereferenceable(184) %60, ptr noundef nonnull align 8 dereferenceable(152) %68) #24
  br label %_ZNK7glslang16HlslParseContext18isStructBufferTypeERKNS_5TTypeE.exit.thread

_ZNK7glslang16HlslParseContext18isStructBufferTypeERKNS_5TTypeE.exit.thread: ; preds = %5, %14, %3, %_ZNK7glslang16HlslParseContext18isStructBufferTypeERKNS_5TTypeE.exit, %39
  %.0 = phi ptr [ %60, %39 ], [ null, %_ZNK7glslang16HlslParseContext18isStructBufferTypeERKNS_5TTypeE.exit ], [ null, %3 ], [ null, %14 ], [ null, %5 ]
  ret ptr %.0
}